target datalayout = "e-m:e-p270:32:32-p271:32:32-p272:64:64-i64:64-i128:128-f80:128-n8:16:32:64-S128"
target triple = "x86_64-pc-linux-gnu"

%struct.PlannerInfo = type { i32, ptr, ptr, i32, ptr, ptr, ptr, ptr, i32, ptr, ptr, ptr, ptr, ptr, ptr, ptr, ptr, i32, ptr, ptr, ptr, ptr, ptr, i8, ptr, ptr, ptr, ptr, ptr, i32, ptr, ptr, ptr, ptr, ptr, ptr, ptr, i32, ptr, ptr, ptr, i32, ptr, ptr, ptr, ptr, ptr, ptr, [8 x ptr], [8 x ptr], ptr, ptr, ptr, ptr, ptr, ptr, ptr, double, double, double, i32, i8, i8, i8, i8, i8, i8, i8, i32, ptr, ptr, i32, i8, i8, i32, ptr, ptr, ptr, ptr, ptr, ptr, i8, ptr }
%struct.RelOptInfo = type { i32, i32, ptr, double, i8, i8, i8, ptr, ptr, ptr, ptr, ptr, ptr, ptr, ptr, ptr, ptr, i32, i32, i32, i16, i16, ptr, ptr, ptr, ptr, ptr, ptr, ptr, ptr, i32, double, double, ptr, ptr, ptr, i32, i32, i32, i32, i8, ptr, ptr, ptr, ptr, ptr, %struct.QualCost, i32, ptr, i8, i8, ptr, ptr, ptr, ptr, i32, ptr, i8, ptr, ptr, ptr, ptr, ptr, ptr }
%struct.QualCost = type { double, double }
%struct.ForEachState = type { ptr, i32 }
%struct.List = type { i32, i32, i32, ptr, [0 x %union.ListCell] }
%union.ListCell = type { ptr }

@.str = private unnamed_addr constant [33 x i8] c"failed to build any %d-way joins\00", align 1
@.str.1 = private unnamed_addr constant [11 x i8] c"allpaths.c\00", align 1
@__func__.standard_join_search = private unnamed_addr constant [21 x i8] c"standard_join_search\00", align 1

; Function Attrs: inlinehint nounwind uwtable
define internal ptr @list_nth_cell(ptr noundef %0, i32 noundef %1) #4 {
  %3 = alloca ptr, align 8
  %4 = alloca i32, align 4
  store ptr %0, ptr %3, align 8
  store i32 %1, ptr %4, align 4
  %5 = load ptr, ptr %3, align 8
  %6 = getelementptr inbounds nuw %struct.List, ptr %5, i32 0, i32 3
  %7 = load ptr, ptr %6, align 8
  %8 = load i32, ptr %4, align 4
  %9 = sext i32 %8 to i64
  %10 = getelementptr inbounds %union.ListCell, ptr %7, i64 %9
  ret ptr %10
}

; Function Attrs: nounwind uwtable
define dso_local ptr @standard_join_search(ptr noundef %0, i32 noundef %1, ptr noundef %2) #0 {
  %4 = alloca ptr, align 8
  %5 = alloca i32, align 4
  %6 = alloca ptr, align 8
  %7 = alloca i32, align 4
  %8 = alloca ptr, align 8
  %9 = alloca ptr, align 8
  %10 = alloca %struct.ForEachState, align 8
  store ptr %0, ptr %4, align 8
  store i32 %1, ptr %5, align 4
  store ptr %2, ptr %6, align 8
  call void @llvm.lifetime.start.p0(i64 4, ptr %7) #8
  call void @llvm.lifetime.start.p0(i64 8, ptr %8) #8
  %11 = load i32, ptr %5, align 4
  %12 = add i32 %11, 1
  %13 = sext i32 %12 to i64
  %14 = mul i64 %13, 8
  %15 = call ptr @palloc0(i64 noundef %14)
  %16 = load ptr, ptr %4, align 8
  %17 = getelementptr inbounds nuw %struct.PlannerInfo, ptr %16, i32 0, i32 16
  store ptr %15, ptr %17, align 8
  %18 = load ptr, ptr %6, align 8
  %19 = load ptr, ptr %4, align 8
  %20 = getelementptr inbounds nuw %struct.PlannerInfo, ptr %19, i32 0, i32 16
  %21 = load ptr, ptr %20, align 8
  %22 = getelementptr inbounds ptr, ptr %21, i64 1
  store ptr %18, ptr %22, align 8
  store i32 2, ptr %7, align 4
  br label %23

23:                                               ; preds = %88, %3
  %24 = load i32, ptr %7, align 4
  %25 = load i32, ptr %5, align 4
  %26 = icmp sle i32 %24, %25
  br i1 %26, label %27, label %91

27:                                               ; preds = %23
  call void @llvm.lifetime.start.p0(i64 8, ptr %9) #8
  %28 = load ptr, ptr %4, align 8
  %29 = load i32, ptr %7, align 4
  call void @join_search_one_level(ptr noundef %28, i32 noundef %29)
  call void @llvm.lifetime.start.p0(i64 16, ptr %10) #8
  %30 = getelementptr inbounds nuw %struct.ForEachState, ptr %10, i32 0, i32 0
  %31 = load ptr, ptr %4, align 8
  %32 = getelementptr inbounds nuw %struct.PlannerInfo, ptr %31, i32 0, i32 16
  %33 = load ptr, ptr %32, align 8
  %34 = load i32, ptr %7, align 4
  %35 = sext i32 %34 to i64
  %36 = getelementptr inbounds ptr, ptr %33, i64 %35
  %37 = load ptr, ptr %36, align 8
  store ptr %37, ptr %30, align 8
  %38 = getelementptr inbounds nuw %struct.ForEachState, ptr %10, i32 0, i32 1
  store i32 0, ptr %38, align 8
  %39 = getelementptr i8, ptr %10, i64 12
  call void @llvm.memset.p0.i64(ptr align 4 %39, i8 0, i64 4, i1 false)
  br label %40

40:                                               ; preds = %83, %27
  %41 = getelementptr inbounds nuw %struct.ForEachState, ptr %10, i32 0, i32 0
  %42 = load ptr, ptr %41, align 8
  %43 = icmp ne ptr %42, null
  br i1 %43, label %44, label %61

44:                                               ; preds = %40
  %45 = getelementptr inbounds nuw %struct.ForEachState, ptr %10, i32 0, i32 1
  %46 = load i32, ptr %45, align 8
  %47 = getelementptr inbounds nuw %struct.ForEachState, ptr %10, i32 0, i32 0
  %48 = load ptr, ptr %47, align 8
  %49 = getelementptr inbounds nuw %struct.List, ptr %48, i32 0, i32 1
  %50 = load i32, ptr %49, align 4
  %51 = icmp slt i32 %46, %50
  br i1 %51, label %52, label %61

52:                                               ; preds = %44
  %53 = getelementptr inbounds nuw %struct.ForEachState, ptr %10, i32 0, i32 0
  %54 = load ptr, ptr %53, align 8
  %55 = getelementptr inbounds nuw %struct.List, ptr %54, i32 0, i32 3
  %56 = load ptr, ptr %55, align 8
  %57 = getelementptr inbounds nuw %struct.ForEachState, ptr %10, i32 0, i32 1
  %58 = load i32, ptr %57, align 8
  %59 = sext i32 %58 to i64
  %60 = getelementptr inbounds %union.ListCell, ptr %56, i64 %59
  store ptr %60, ptr %9, align 8
  br label %62

61:                                               ; preds = %44, %40
  store ptr null, ptr %9, align 8
  br label %62

62:                                               ; preds = %61, %52
  %63 = phi i32 [ 1, %52 ], [ 0, %61 ]
  %64 = icmp ne i32 %63, 0
  br i1 %64, label %66, label %65

65:                                               ; preds = %62
  call void @llvm.lifetime.end.p0(i64 16, ptr %10) #8
  br label %87

66:                                               ; preds = %62
  %67 = load ptr, ptr %9, align 8
  %68 = load ptr, ptr %67, align 8
  store ptr %68, ptr %8, align 8
  %69 = load ptr, ptr %4, align 8
  %70 = load ptr, ptr %8, align 8
  call void @generate_partitionwise_join_paths(ptr noundef %69, ptr noundef %70)
  %71 = load ptr, ptr %8, align 8
  %72 = getelementptr inbounds nuw %struct.RelOptInfo, ptr %71, i32 0, i32 2
  %73 = load ptr, ptr %72, align 8
  %74 = load ptr, ptr %4, align 8
  %75 = getelementptr inbounds nuw %struct.PlannerInfo, ptr %74, i32 0, i32 13
  %76 = load ptr, ptr %75, align 8
  %77 = call zeroext i1 @bms_equal(ptr noundef %73, ptr noundef %76)
  br i1 %77, label %81, label %78

78:                                               ; preds = %66
  %79 = load ptr, ptr %4, align 8
  %80 = load ptr, ptr %8, align 8
  call void @generate_useful_gather_paths(ptr noundef %79, ptr noundef %80, i1 noundef zeroext false)
  br label %81

81:                                               ; preds = %78, %66
  %82 = load ptr, ptr %8, align 8
  call void @set_cheapest(ptr noundef %82)
  br label %83

83:                                               ; preds = %81
  %84 = getelementptr inbounds nuw %struct.ForEachState, ptr %10, i32 0, i32 1
  %85 = load i32, ptr %84, align 8
  %86 = add i32 %85, 1
  store i32 %86, ptr %84, align 8
  br label %40, !llvm.loop !28

87:                                               ; preds = %65
  call void @llvm.lifetime.end.p0(i64 8, ptr %9) #8
  br label %88

88:                                               ; preds = %87
  %89 = load i32, ptr %7, align 4
  %90 = add i32 %89, 1
  store i32 %90, ptr %7, align 4
  br label %23, !llvm.loop !29

91:                                               ; preds = %23
  %92 = load ptr, ptr %4, align 8
  %93 = getelementptr inbounds nuw %struct.PlannerInfo, ptr %92, i32 0, i32 16
  %94 = load ptr, ptr %93, align 8
  %95 = load i32, ptr %5, align 4
  %96 = sext i32 %95 to i64
  %97 = getelementptr inbounds ptr, ptr %94, i64 %96
  %98 = load ptr, ptr %97, align 8
  %99 = icmp eq ptr %98, null
  br i1 %99, label %100, label %112

100:                                              ; preds = %91
  br label %101

101:                                              ; preds = %100
  br i1 true, label %102, label %104

102:                                              ; preds = %101
  %103 = call zeroext i1 @errstart_cold(i32 noundef 21, ptr noundef null) #9
  br i1 %103, label %106, label %109

104:                                              ; preds = %101
  %105 = call zeroext i1 @errstart(i32 noundef 21, ptr noundef null)
  br i1 %105, label %106, label %109

106:                                              ; preds = %104, %102
  %107 = load i32, ptr %5, align 4
  %108 = call i32 (ptr, ...) @errmsg_internal(ptr noundef @.str, i32 noundef %107)
  call void @errfinish(ptr noundef @.str.1, i32 noundef 3505, ptr noundef @__func__.standard_join_search)
  br label %109

109:                                              ; preds = %106, %104, %102
  unreachable

110:                                              ; No predecessors!
  br label %111

111:                                              ; preds = %110
  br label %112

112:                                              ; preds = %111, %91
  %113 = load ptr, ptr %4, align 8
  %114 = getelementptr inbounds nuw %struct.PlannerInfo, ptr %113, i32 0, i32 16
  %115 = load ptr, ptr %114, align 8
  %116 = load i32, ptr %5, align 4
  %117 = sext i32 %116 to i64
  %118 = getelementptr inbounds ptr, ptr %115, i64 %117
  %119 = load ptr, ptr %118, align 8
  %120 = call ptr @list_nth_cell(ptr noundef %119, i32 noundef 0)
  %121 = load ptr, ptr %120, align 8
  store ptr %121, ptr %8, align 8
  %122 = load ptr, ptr %4, align 8
  %123 = getelementptr inbounds nuw %struct.PlannerInfo, ptr %122, i32 0, i32 16
  store ptr null, ptr %123, align 8
  %124 = load ptr, ptr %8, align 8
  call void @llvm.lifetime.end.p0(i64 8, ptr %8) #8
  call void @llvm.lifetime.end.p0(i64 4, ptr %7) #8
  ret ptr %124
}