; Function Attrs: nounwind uwtable
define dso_local ptr @standard_join_search(ptr noundef initializes((128, 136)) %0, i32 noundef %1, ptr noundef %2) local_unnamed_addr #0 {
  %4 = add i32 %1, 1
  %5 = sext i32 %4 to i64
  %6 = shl nsw i64 %5, 3
  %7 = tail call ptr @palloc0(i64 noundef %6) #9
  %8 = getelementptr inbounds nuw i8, ptr %0, i64 128
  store ptr %7, ptr %8, align 8
  %9 = getelementptr inbounds nuw i8, ptr %7, i64 8
  store ptr %2, ptr %9, align 8
  %.not41 = icmp slt i32 %1, 2
  br i1 %.not41, label %._crit_edge45, label %.lr.ph44

.lr.ph44:                                         ; preds = %3
  %10 = getelementptr inbounds nuw i8, ptr %0, i64 104
  br label %11

11:                                               ; preds = %.lr.ph44, %._crit_edge
  %.042 = phi i32 [ 2, %.lr.ph44 ], [ %20, %._crit_edge ]
  tail call void @join_search_one_level(ptr noundef nonnull %0, i32 noundef %.042) #9
  %12 = load ptr, ptr %8, align 8
  %13 = sext i32 %.042 to i64
  %14 = getelementptr inbounds ptr, ptr %12, i64 %13
  %15 = load ptr, ptr %14, align 8
  %16 = getelementptr inbounds nuw i8, ptr %15, i64 4
  %.not33 = icmp eq ptr %15, null
  br i1 %.not33, label %._crit_edge, label %.lr.ph

.lr.ph:                                           ; preds = %11
  %17 = getelementptr inbounds nuw i8, ptr %15, i64 16
  %18 = load i32, ptr %16, align 4
  %19 = icmp sgt i32 %18, 0
  br i1 %19, label %.lr.ph40, label %._crit_edge

._crit_edge:                                      ; preds = %29, %.lr.ph, %11
  %20 = add i32 %.042, 1
  %.not = icmp sgt i32 %20, %1
  br i1 %.not, label %._crit_edge45, label %11, !llvm.loop !14

.lr.ph40:                                         ; preds = %.lr.ph, %29
  %indvars.iv = phi i64 [ %indvars.iv.next, %29 ], [ 0, %.lr.ph ]
  %21 = load ptr, ptr %17, align 8
  %22 = getelementptr inbounds nuw %union.ListCell, ptr %21, i64 %indvars.iv
  %23 = load ptr, ptr %22, align 8
  tail call void @generate_partitionwise_join_paths(ptr noundef nonnull %0, ptr noundef %23)
  %24 = getelementptr inbounds nuw i8, ptr %23, i64 8
  %25 = load ptr, ptr %24, align 8
  %26 = load ptr, ptr %10, align 8
  %27 = tail call zeroext i1 @bms_equal(ptr noundef %25, ptr noundef %26) #9
  br i1 %27, label %29, label %28

28:                                               ; preds = %.lr.ph40
  tail call void @generate_useful_gather_paths(ptr noundef nonnull %0, ptr noundef nonnull %23, i1 noundef zeroext false)
  br label %29

29:                                               ; preds = %28, %.lr.ph40
  tail call void @set_cheapest(ptr noundef nonnull %23) #9
  %indvars.iv.next = add nuw nsw i64 %indvars.iv, 1
  %30 = load i32, ptr %16, align 4
  %31 = sext i32 %30 to i64
  %32 = icmp slt i64 %indvars.iv.next, %31
  br i1 %32, label %.lr.ph40, label %._crit_edge

._crit_edge45:                                    ; preds = %._crit_edge, %3
  %33 = load ptr, ptr %8, align 8
  %34 = sext i32 %1 to i64
  %35 = getelementptr inbounds ptr, ptr %33, i64 %34
  %36 = load ptr, ptr %35, align 8
  %37 = icmp eq ptr %36, null
  br i1 %37, label %38, label %41

38:                                               ; preds = %._crit_edge45
  %39 = tail call zeroext i1 @errstart_cold(i32 noundef 21, ptr noundef null) #10
  tail call void @llvm.assume(i1 %39)
  %40 = tail call i32 (ptr, ...) @errmsg_internal(ptr noundef nonnull @.str, i32 noundef %1) #9
  tail call void @errfinish(ptr noundef nonnull @.str.1, i32 noundef 3505, ptr noundef nonnull @__func__.standard_join_search) #9
  unreachable

41:                                               ; preds = %._crit_edge45
  %42 = getelementptr i8, ptr %36, i64 16
  %.val = load ptr, ptr %42, align 8
  %43 = load ptr, ptr %.val, align 8
  store ptr null, ptr %8, align 8
  ret ptr %43
}